; Function Attrs: nounwind uwtable
define dso_local noundef zeroext i1 @listOpFamilyOperators(ptr noundef %0, ptr noundef %1, i1 noundef zeroext %2) local_unnamed_addr #0 {
  %4 = alloca %struct.PQExpBufferData, align 8
  %5 = alloca i32, align 4
  %6 = alloca %struct.PQExpBufferData, align 8
  %7 = alloca %struct.printQueryOpt, align 8
  call void @llvm.lifetime.start.p0(i64 24, ptr nonnull %6) #8
  call void @llvm.lifetime.start.p0(i64 168, ptr nonnull %7) #8
  call void @llvm.memcpy.p0.p0.i64(ptr noundef nonnull align 8 dereferenceable(168) %7, ptr noundef nonnull align 8 dereferenceable(168) getelementptr inbounds nuw (i8, ptr @pset, i64 48), i64 168, i1 false)
  call void @initPQExpBuffer(ptr noundef nonnull %6) #8
  call void (ptr, ptr, ...) @printfPQExpBuffer(ptr noundef nonnull %6, ptr noundef nonnull @.str.586, ptr noundef nonnull @.str.566, ptr noundef nonnull @.str.571, ptr noundef nonnull @.str.587, ptr noundef nonnull @.str.588, ptr noundef nonnull @.str.589, ptr noundef nonnull @.str.590, ptr noundef nonnull @.str.591) #8
  br i1 %2, label %8, label %.critedge

8:                                                ; preds = %3
  call void (ptr, ptr, ...) @appendPQExpBuffer(ptr noundef nonnull %6, ptr noundef nonnull @.str.592, ptr noundef nonnull @.str.593, ptr noundef nonnull @.str.61, ptr noundef nonnull @.str.62, ptr noundef nonnull @.str.63) #8
  call void @appendPQExpBufferStr(ptr noundef nonnull %6, ptr noundef nonnull @.str.594) #8
  br label %.critedge

.critedge:                                        ; preds = %3, %8
  %.str.594.sink = phi ptr [ @.str.595, %8 ], [ @.str.594, %3 ]
  call void @appendPQExpBufferStr(ptr noundef nonnull %6, ptr noundef nonnull %.str.594.sink) #8
  %.not = icmp eq ptr %0, null
  br i1 %.not, label %13, label %9

9:                                                ; preds = %.critedge
  call void @llvm.lifetime.start.p0(i64 24, ptr nonnull %4) #8
  call void @llvm.lifetime.start.p0(i64 4, ptr nonnull %5) #8
  call void @initPQExpBuffer(ptr noundef nonnull %4) #8
  %10 = load ptr, ptr @pset, align 8
  %11 = call zeroext i1 @processSQLNamePattern(ptr noundef %10, ptr noundef nonnull %6, ptr noundef nonnull %0, i1 noundef zeroext false, i1 noundef zeroext false, ptr noundef null, ptr noundef nonnull @.str.574, ptr noundef null, ptr noundef null, ptr noundef nonnull %4, ptr noundef nonnull %5) #8
  %12 = load i32, ptr %5, align 4
  %.not19.i = icmp slt i32 %12, 1
  br i1 %.not19.i, label %validateSQLNamePattern.exit.thread, label %validateSQLNamePattern.exit

validateSQLNamePattern.exit.thread:               ; preds = %9
  call void @termPQExpBuffer(ptr noundef nonnull %4) #8
  call void @llvm.lifetime.end.p0(i64 4, ptr nonnull %5) #8
  call void @llvm.lifetime.end.p0(i64 24, ptr nonnull %4) #8
  br label %13

validateSQLNamePattern.exit:                      ; preds = %9
  call void (i32, i32, ptr, ...) @pg_log_generic(i32 noundef 4, i32 noundef 0, ptr noundef nonnull @.str.912, ptr noundef nonnull %0) #8
  call void @termPQExpBuffer(ptr noundef nonnull %4) #8
  call void @llvm.lifetime.end.p0(i64 4, ptr nonnull %5) #8
  call void @llvm.lifetime.end.p0(i64 24, ptr nonnull %4) #8
  br label %26

13:                                               ; preds = %validateSQLNamePattern.exit.thread, %.critedge
  %.014 = phi i1 [ false, %.critedge ], [ %11, %validateSQLNamePattern.exit.thread ]
  %.not12 = icmp eq ptr %1, null
  br i1 %.not12, label %16, label %14

14:                                               ; preds = %13
  %15 = call fastcc zeroext i1 @validateSQLNamePattern(ptr noundef %6, ptr noundef nonnull %1, i1 noundef zeroext %.014, i1 noundef zeroext false, ptr noundef nonnull @.str.596, ptr noundef nonnull @.str.597, ptr noundef null, ptr noundef null, ptr noundef null, i32 noundef 3)
  br i1 %15, label %16, label %26

16:                                               ; preds = %14, %13
  call void @appendPQExpBufferStr(ptr noundef nonnull %6, ptr noundef nonnull @.str.598) #8
  %17 = load ptr, ptr %6, align 8
  %18 = call ptr @PSQLexec(ptr noundef %17) #8
  call void @termPQExpBuffer(ptr noundef nonnull %6) #8
  %.not13 = icmp eq ptr %18, null
  br i1 %.not13, label %27, label %19

19:                                               ; preds = %16
  %20 = getelementptr inbounds nuw i8, ptr %7, i64 128
  store ptr @.str.599, ptr %20, align 8
  %21 = getelementptr inbounds nuw i8, ptr %7, i64 144
  store i8 1, ptr %21, align 8
  %22 = getelementptr inbounds nuw i8, ptr %7, i64 152
  store ptr @listOpFamilyOperators.translate_columns, ptr %22, align 8
  %23 = getelementptr inbounds nuw i8, ptr %7, i64 160
  store i32 7, ptr %23, align 8
  %24 = load ptr, ptr getelementptr inbounds nuw (i8, ptr @pset, i64 16), align 8
  %25 = load ptr, ptr getelementptr inbounds nuw (i8, ptr @pset, i64 376), align 8
  call void @printQuery(ptr noundef nonnull %18, ptr noundef nonnull %7, ptr noundef %24, i1 noundef zeroext false, ptr noundef %25) #8
  call void @PQclear(ptr noundef nonnull %18) #8
  br label %27

26:                                               ; preds = %validateSQLNamePattern.exit, %14
  call void @termPQExpBuffer(ptr noundef nonnull %6) #8
  br label %27

27:                                               ; preds = %16, %26, %19
  %.0 = phi i1 [ true, %19 ], [ false, %26 ], [ false, %16 ]
  call void @llvm.lifetime.end.p0(i64 168, ptr nonnull %7) #8
  call void @llvm.lifetime.end.p0(i64 24, ptr nonnull %6) #8
  ret i1 %.0
}